target datalayout = "e-m:e-p270:32:32-p271:32:32-p272:64:64-i64:64-i128:128-f80:128-n8:16:32:64-S128"
target triple = "x86_64-pc-linux-gnu"

; Function Attrs: nounwind uwtable
define internal i32 @config_prof_ctl(ptr noundef %0, ptr noundef %1, i64 noundef %2, ptr noundef %3, ptr noundef %4, ptr noundef %5, i64 noundef %6) #0 {
  %8 = alloca i32, align 4
  %9 = alloca ptr, align 8
  %10 = alloca ptr, align 8
  %11 = alloca i64, align 8
  %12 = alloca ptr, align 8
  %13 = alloca ptr, align 8
  %14 = alloca ptr, align 8
  %15 = alloca i64, align 8
  %16 = alloca i32, align 4
  %17 = alloca i8, align 1
  %18 = alloca i64, align 8
  %19 = alloca i32, align 4
  store ptr %0, ptr %9, align 8, !tbaa !4
  store ptr %1, ptr %10, align 8, !tbaa !12
  store i64 %2, ptr %11, align 8, !tbaa !14
  store ptr %3, ptr %12, align 8, !tbaa !11
  store ptr %4, ptr %13, align 8, !tbaa !12
  store ptr %5, ptr %14, align 8, !tbaa !11
  store i64 %6, ptr %15, align 8, !tbaa !14
  call void @llvm.lifetime.start.p0(i64 4, ptr %16) #13
  call void @llvm.lifetime.start.p0(i64 1, ptr %17) #13
  br label %20

20:                                               ; preds = %7
  %21 = load ptr, ptr %14, align 8, !tbaa !11
  %22 = icmp ne ptr %21, null
  br i1 %22, label %26, label %23

23:                                               ; preds = %20
  %24 = load i64, ptr %15, align 8, !tbaa !14
  %25 = icmp ne i64 %24, 0
  br i1 %25, label %26, label %27

26:                                               ; preds = %23, %20
  store i32 1, ptr %16, align 4, !tbaa !20
  br label %63

27:                                               ; preds = %23
  br label %28

28:                                               ; preds = %27
  br label %29

29:                                               ; preds = %28
  store i8 0, ptr %17, align 1, !tbaa !16
  br label %30

30:                                               ; preds = %29
  %31 = load ptr, ptr %12, align 8, !tbaa !11
  %32 = icmp ne ptr %31, null
  br i1 %32, label %33, label %60

33:                                               ; preds = %30
  %34 = load ptr, ptr %13, align 8, !tbaa !12
  %35 = icmp ne ptr %34, null
  br i1 %35, label %36, label %60

36:                                               ; preds = %33
  %37 = load ptr, ptr %13, align 8, !tbaa !12
  %38 = load i64, ptr %37, align 8, !tbaa !14
  %39 = icmp ne i64 %38, 1
  br i1 %39, label %40, label %55

40:                                               ; preds = %36
  call void @llvm.lifetime.start.p0(i64 8, ptr %18) #13
  %41 = load ptr, ptr %13, align 8, !tbaa !12
  %42 = load i64, ptr %41, align 8, !tbaa !14
  %43 = icmp ule i64 1, %42
  br i1 %43, label %44, label %45

44:                                               ; preds = %40
  br label %48

45:                                               ; preds = %40
  %46 = load ptr, ptr %13, align 8, !tbaa !12
  %47 = load i64, ptr %46, align 8, !tbaa !14
  br label %48

48:                                               ; preds = %45, %44
  %49 = phi i64 [ 1, %44 ], [ %47, %45 ]
  store i64 %49, ptr %18, align 8, !tbaa !14
  %50 = load ptr, ptr %12, align 8, !tbaa !11
  %51 = load i64, ptr %18, align 8, !tbaa !14
  call void @llvm.memcpy.p0.p0.i64(ptr align 1 %50, ptr align 1 %17, i64 %51, i1 false)
  %52 = load i64, ptr %18, align 8, !tbaa !14
  %53 = load ptr, ptr %13, align 8, !tbaa !12
  store i64 %52, ptr %53, align 8, !tbaa !14
  store i32 22, ptr %16, align 4, !tbaa !20
  store i32 4, ptr %19, align 4
  call void @llvm.lifetime.end.p0(i64 8, ptr %18) #13
  %54 = load i32, ptr %19, align 4
  switch i32 %54, label %65 [
    i32 4, label %63
  ]

55:                                               ; preds = %36
  %56 = load i8, ptr %17, align 1, !tbaa !16, !range !18, !noundef !19
  %57 = trunc i8 %56 to i1
  %58 = load ptr, ptr %12, align 8, !tbaa !11
  %59 = zext i1 %57 to i8
  store i8 %59, ptr %58, align 1, !tbaa !16
  br label %60

60:                                               ; preds = %55, %33, %30
  br label %61

61:                                               ; preds = %60
  br label %62

62:                                               ; preds = %61
  store i32 0, ptr %16, align 4, !tbaa !20
  br label %63

63:                                               ; preds = %62, %48, %26
  %64 = load i32, ptr %16, align 4, !tbaa !20
  store i32 %64, ptr %8, align 4
  store i32 1, ptr %19, align 4
  br label %65

65:                                               ; preds = %63, %48
  call void @llvm.lifetime.end.p0(i64 1, ptr %17) #13
  call void @llvm.lifetime.end.p0(i64 4, ptr %16) #13
  %66 = load i32, ptr %8, align 4
  ret i32 %66
}